; Function Attrs: nofree norecurse nosync nounwind null_pointer_is_valid sspstrong memory(read, inaccessiblemem: none) uwtable
define internal i32 @conversation_hash(ptr noundef readonly captures(none) %0) #6 {
  %2 = getelementptr inbounds nuw i8, ptr %0, i64 8
  %3 = load ptr, ptr %2, align 8
  %4 = getelementptr inbounds nuw i8, ptr %0, i64 4
  %5 = load i32, ptr %4, align 4
  %6 = icmp sgt i32 %5, 0
  br i1 %6, label %.lr.ph.preheader.i, label %add_address_to_hash.exit

.lr.ph.preheader.i:                               ; preds = %1
  %wide.trip.count.i = zext nneg i32 %5 to i64
  br label %.lr.ph.i

.lr.ph.i:                                         ; preds = %.lr.ph.i, %.lr.ph.preheader.i
  %indvars.iv.i = phi i64 [ 0, %.lr.ph.preheader.i ], [ %indvars.iv.next.i, %.lr.ph.i ]
  %.01112.i = phi i32 [ 0, %.lr.ph.preheader.i ], [ %13, %.lr.ph.i ]
  %7 = getelementptr i8, ptr %3, i64 %indvars.iv.i
  %8 = load i8, ptr %7, align 1
  %9 = zext i8 %8 to i32
  %10 = add i32 %.01112.i, %9
  %11 = mul i32 %10, 1025
  %12 = lshr i32 %11, 6
  %13 = xor i32 %12, %11
  %indvars.iv.next.i = add nuw nsw i64 %indvars.iv.i, 1
  %exitcond.not.i = icmp eq i64 %indvars.iv.next.i, %wide.trip.count.i
  br i1 %exitcond.not.i, label %add_address_to_hash.exit, label %.lr.ph.i, !llvm.loop !11

add_address_to_hash.exit:                         ; preds = %.lr.ph.i, %1
  %.011.lcssa.i = phi i32 [ 0, %1 ], [ %13, %.lr.ph.i ]
  %14 = getelementptr inbounds nuw i8, ptr %0, i64 48
  %15 = load i32, ptr %14, align 8
  %16 = add i32 %15, %.011.lcssa.i
  %17 = getelementptr inbounds nuw i8, ptr %0, i64 32
  %18 = load ptr, ptr %17, align 8
  %19 = getelementptr inbounds nuw i8, ptr %0, i64 28
  %20 = load i32, ptr %19, align 4
  %21 = icmp sgt i32 %20, 0
  br i1 %21, label %.lr.ph.preheader.i12, label %add_address_to_hash.exit19

.lr.ph.preheader.i12:                             ; preds = %add_address_to_hash.exit
  %wide.trip.count.i13 = zext nneg i32 %20 to i64
  br label %.lr.ph.i14

.lr.ph.i14:                                       ; preds = %.lr.ph.i14, %.lr.ph.preheader.i12
  %indvars.iv.i15 = phi i64 [ 0, %.lr.ph.preheader.i12 ], [ %indvars.iv.next.i17, %.lr.ph.i14 ]
  %.01112.i16 = phi i32 [ %16, %.lr.ph.preheader.i12 ], [ %28, %.lr.ph.i14 ]
  %22 = getelementptr i8, ptr %18, i64 %indvars.iv.i15
  %23 = load i8, ptr %22, align 1
  %24 = zext i8 %23 to i32
  %25 = add i32 %.01112.i16, %24
  %26 = mul i32 %25, 1025
  %27 = lshr i32 %26, 6
  %28 = xor i32 %27, %26
  %indvars.iv.next.i17 = add nuw nsw i64 %indvars.iv.i15, 1
  %exitcond.not.i18 = icmp eq i64 %indvars.iv.next.i17, %wide.trip.count.i13
  br i1 %exitcond.not.i18, label %add_address_to_hash.exit19, label %.lr.ph.i14, !llvm.loop !11

add_address_to_hash.exit19:                       ; preds = %.lr.ph.i14, %add_address_to_hash.exit
  %.011.lcssa.i11 = phi i32 [ %16, %add_address_to_hash.exit ], [ %28, %.lr.ph.i14 ]
  %29 = getelementptr inbounds nuw i8, ptr %0, i64 52
  %30 = load i32, ptr %29, align 4
  %31 = add i32 %30, %.011.lcssa.i11
  %32 = getelementptr inbounds nuw i8, ptr %0, i64 56
  %33 = load i32, ptr %32, align 8
  %34 = xor i32 %31, %33
  ret i32 %34
}